; ModuleID = '30/3207.c'
source_filename = "30/3207.c"
target datalayout = "e-m:e-p270:32:32-p271:32:32-p272:64:64-i64:64-f80:128-n8:16:32:64-S128"
target triple = "x86_64-pc-linux-gnu"

@.str = private unnamed_addr constant [3 x i8] c"%d\00", align 1

; Function Attrs: noinline nounwind uwtable
define dso_local i32 @main() #0 {
  %1 = alloca i32, align 4
  %2 = alloca i32, align 4
  %3 = alloca i32, align 4
  %4 = alloca i32, align 4
  store i32 0, i32* %1, align 4
  %5 = call i32 (i8*, ...) @__isoc99_scanf(i8* getelementptr inbounds ([3 x i8], [3 x i8]* @.str, i64 0, i64 0), i32* %2)
  store i32 1, i32* %3, align 4
  store i32 0, i32* %4, align 4
  br label %6

6:                                                ; preds = %36, %0
  %7 = load i32, i32* %3, align 4
  %8 = srem i32 %7, 7
  %9 = icmp eq i32 %8, 0
  br i1 %9, label %10, label %13

10:                                               ; preds = %6
  %11 = load i32, i32* %3, align 4
  %12 = add nsw i32 %11, 1
  store i32 %12, i32* %3, align 4
  br label %35

13:                                               ; preds = %6
  %14 = load i32, i32* %3, align 4
  %15 = srem i32 %14, 10
  %16 = icmp eq i32 %15, 7
  br i1 %16, label %23, label %17

17:                                               ; preds = %13
  %18 = load i32, i32* %3, align 4
  %19 = icmp sle i32 70, %18
  br i1 %19, label %20, label %26

20:                                               ; preds = %17
  %21 = load i32, i32* %3, align 4
  %22 = icmp sle i32 %21, 79
  br i1 %22, label %23, label %26

23:                                               ; preds = %20, %13
  %24 = load i32, i32* %3, align 4
  %25 = add nsw i32 %24, 1
  store i32 %25, i32* %3, align 4
  br label %34

26:                                               ; preds = %20, %17
  %27 = load i32, i32* %4, align 4
  %28 = load i32, i32* %3, align 4
  %29 = load i32, i32* %3, align 4
  %30 = mul nsw i32 %28, %29
  %31 = add nsw i32 %27, %30
  store i32 %31, i32* %4, align 4
  %32 = load i32, i32* %3, align 4
  %33 = add nsw i32 %32, 1
  store i32 %33, i32* %3, align 4
  br label %34

34:                                               ; preds = %26, %23
  br label %35

35:                                               ; preds = %34, %10
  br label %36

36:                                               ; preds = %35
  %37 = load i32, i32* %3, align 4
  %38 = load i32, i32* %2, align 4
  %39 = icmp sle i32 %37, %38
  br i1 %39, label %6, label %40

40:                                               ; preds = %36
  %41 = load i32, i32* %4, align 4
  %42 = call i32 (i8*, ...) @printf(i8* getelementptr inbounds ([3 x i8], [3 x i8]* @.str, i64 0, i64 0), i32 %41)
  ret i32 0
}

declare dso_local i32 @__isoc99_scanf(i8*, ...) #1

declare dso_local i32 @printf(i8*, ...) #1


!llvm.module.flags = !{!0}
!llvm.ident = !{!1}

!0 = !{i32 1, !"wchar_size", i32 4}
!1 = !{!"clang version 10.0.0-4ubuntu1 "}
